Certificate:
    Data:
        Version: 3 (0x2)
        Serial Number: 1 (0x1)
        Signature Algorithm: sha256WithRSAEncryption
        Issuer: O=Redpanda, CN=Redpanda CA
        Validity
            Not Before: Aug  1 10:34:48 2024 GMT
            Not After : Aug  1 10:34:48 2025 GMT
        Subject: O=Redpanda
        Subject Public Key Info:
            Public Key Algorithm: rsaEncryption
                Public-Key: (2048 bit)
                Modulus:
                    00:c1:28:d5:e4:4f:34:80:42:c6:87:d9:e5:b8:04:
                    00:60:c6:50:08:8c:f2:a3:0b:c8:cb:c8:bd:b1:84:
                    9f:03:d4:cb:9f:e7:4e:62:91:06:1f:c5:47:28:40:
                    b2:94:b6:dd:12:c5:c5:d1:28:c3:e2:11:cb:bf:59:
                    5b:e7:0b:7d:56:d5:f2:a1:0b:b9:1f:62:8c:56:80:
                    6d:99:a0:5c:32:54:d9:49:19:80:a7:1f:a7:05:3f:
                    ef:f4:8c:bd:21:22:0e:ff:01:19:19:44:58:5f:60:
                    1e:09:75:1b:e8:d5:f7:63:ce:ba:dd:21:d5:4f:aa:
                    a9:cc:26:96:3a:d1:49:e0:40:66:ab:c4:e3:27:3f:
                    0d:de:1d:d0:2f:cc:4e:2f:69:2e:66:43:c0:5c:f8:
                    31:15:8c:6b:fe:96:56:c5:48:0b:d0:b2:ac:e7:bb:
                    c6:76:6e:6f:c0:75:ee:44:d0:5b:f6:94:45:c2:6d:
                    db:e9:fc:55:66:af:8d:37:c2:2c:1c:61:ef:44:e1:
                    18:d7:ef:8c:ba:d0:ff:8c:1c:6e:fa:d5:49:9e:1b:
                    3c:fe:1e:4d:86:fa:b8:80:62:2c:c6:08:00:45:f9:
                    6e:5d:83:ea:42:68:e9:ec:5a:21:74:ed:8f:49:f8:
                    f5:bb:55:cb:0a:b9:03:15:a5:98:7d:86:e2:da:9b:
                    8a:67
                Exponent: 65537 (0x10001)
        X509v3 extensions:
            X509v3 Key Usage: critical
                Digital Signature, Non Repudiation, Key Encipherment, Certificate Sign
            X509v3 Basic Constraints: critical
                CA:TRUE, pathlen:1
            X509v3 Subject Alternative Name: 
                DNS:localhost, DNS:redpanda, DNS:console
            X509v3 Subject Key Identifier: 
                87:E8:6F:72:42:CD:59:C0:1A:C9:AF:CD:75:DA:B8:2E:62:3F:8C:06
            X509v3 Authority Key Identifier: 
                54:72:29:11:CA:E7:E1:7A:E9:38:F7:46:27:5E:42:15:CB:DA:F0:0B
    Signature Algorithm: sha256WithRSAEncryption
    Signature Value:
        45:60:8c:23:1f:00:b6:17:ec:0e:31:ae:bb:c8:28:b1:0b:64:
        f9:da:16:0f:ae:de:24:f1:9a:1a:2e:b7:17:dc:02:c5:87:9b:
        8d:4d:c0:7e:04:2a:d8:ff:a6:e5:e5:63:a5:cc:c4:a1:83:49:
        17:13:ee:ad:f5:e5:19:f6:92:a7:bd:7f:cc:f8:03:c7:4d:61:
        80:f6:3d:aa:67:2f:30:68:78:d8:ed:13:1d:1d:fe:d6:2e:36:
        ff:df:5e:3a:76:18:cb:3e:09:71:98:ee:43:8b:c8:4b:86:3e:
        d7:8f:d6:d8:e5:4b:46:bf:bd:4e:74:7e:3b:a3:95:c3:37:82:
        e8:0c:a2:69:bd:ce:a9:23:2c:ae:e9:13:e8:d5:13:ae:2c:a3:
        f8:ef:02:70:49:dd:8d:16:0e:99:5b:e3:9d:82:cc:ba:95:0c:
        f1:15:3f:75:57:50:82:59:a6:bc:06:17:7b:04:26:01:37:78:
        d5:b0:8b:58:6d:72:64:b0:7d:c5:58:e1:9f:47:83:61:b3:83:
        63:62:02:92:7f:36:64:e4:64:c5:88:63:31:2d:18:f4:07:e6:
        ef:46:47:bc:95:a1:1f:d6:c9:6e:04:14:b9:fa:44:73:be:c1:
        0b:15:cf:9a:73:fc:8a:b9:66:1f:bd:9c:c0:e6:43:27:de:07:
        6f:50:c1:87
-----BEGIN CERTIFICATE-----
MIIDSDCCAjCgAwIBAgIBATANBgkqhkiG9w0BAQsFADApMREwDwYDVQQKDAhSZWRw
YW5kYTEUMBIGA1UEAwwLUmVkcGFuZGEgQ0EwHhcNMjQwODAxMTAzNDQ4WhcNMjUw
ODAxMTAzNDQ4WjATMREwDwYDVQQKDAhSZWRwYW5kYTCCASIwDQYJKoZIhvcNAQEB
BQADggEPADCCAQoCggEBAMEo1eRPNIBCxofZ5bgEAGDGUAiM8qMLyMvIvbGEnwPU
y5/nTmKRBh/FRyhAspS23RLFxdEow+IRy79ZW+cLfVbV8qELuR9ijFaAbZmgXDJU
2UkZgKcfpwU/7/SMvSEiDv8BGRlEWF9gHgl1G+jV92POut0h1U+qqcwmljrRSeBA
ZqvE4yc/Dd4d0C/MTi9pLmZDwFz4MRWMa/6WVsVIC9CyrOe7xnZub8B17kTQW/aU
RcJt2+n8VWavjTfCLBxh70ThGNfvjLrQ/4wcbvrVSZ4bPP4eTYb6uIBiLMYIAEX5
bl2D6kJo6exaIXTtj0n49btVywq5AxWlmH2G4tqbimcCAwEAAaOBkDCBjTAOBgNV
HQ8BAf8EBAMCAuQwEgYDVR0TAQH/BAgwBgEB/wIBATAnBgNVHREEIDAegglsb2Nh
bGhvc3SCCHJlZHBhbmRhggdjb25zb2xlMB0GA1UdDgQWBBSH6G9yQs1ZwBrJr811
2rguYj+MBjAfBgNVHSMEGDAWgBRUcikRyufheuk490YnXkIVy9rwCzANBgkqhkiG
9w0BAQsFAAOCAQEARWCMIx8AthfsDjGuu8gosQtk+doWD67eJPGaGi63F9wCxYeb
jU3AfgQq2P+m5eVjpczEoYNJFxPurfXlGfaSp71/zPgDx01hgPY9qmcvMGh42O0T
HR3+1i42/99eOnYYyz4JcZjuQ4vIS4Y+14/W2OVLRr+9TnR+O6OVwzeC6Ayiab3O
qSMsrukT6NUTriyj+O8CcEndjRYOmVvjnYLMupUM8RU/dVdQglmmvAYXewQmATd4
1bCLWG1yZLB9xVjhn0eDYbODY2ICkn82ZORkxYhjMS0Y9Afm70ZHvJWhH9bJbgQU
ufpEc77BCxXPmnP8irlmH72cwOZDJ94Hb1DBhw==
-----END CERTIFICATE-----
